target datalayout = "e-m:e-p270:32:32-p271:32:32-p272:64:64-i64:64-i128:128-f80:128-n8:16:32:64-S128"
target triple = "x86_64-pc-linux-gnu"

%struct._lv_anim_t = type { ptr, ptr, ptr, ptr, ptr, ptr, ptr, ptr, ptr, i32, i32, i32, i32, i32, i32, i32, i32, i32, %union._lv_anim_path_para_t, i32, i8 }
%union._lv_anim_path_para_t = type { %struct.lv_anim_bezier3_para_t }
%struct.lv_anim_bezier3_para_t = type { i16, i16, i16, i16 }

; Function Attrs: nounwind uwtable
define internal i32 @convert_speed_to_time(i32 noundef %0, i32 noundef %1, i32 noundef %2) #0 {
  %4 = alloca i32, align 4
  %5 = alloca i32, align 4
  %6 = alloca i32, align 4
  %7 = alloca i32, align 4
  %8 = alloca i32, align 4
  %9 = alloca i32, align 4
  %10 = alloca i32, align 4
  %11 = alloca i32, align 4
  %12 = alloca i32, align 4
  store i32 %0, ptr %5, align 4, !tbaa !26
  store i32 %1, ptr %6, align 4, !tbaa !26
  store i32 %2, ptr %7, align 4, !tbaa !26
  %13 = load i32, ptr %5, align 4, !tbaa !26
  %14 = and i32 %13, -2147483648
  %15 = icmp eq i32 %14, 0
  br i1 %15, label %16, label %18

16:                                               ; preds = %3
  %17 = load i32, ptr %5, align 4, !tbaa !26
  store i32 %17, ptr %4, align 4
  br label %77

18:                                               ; preds = %3
  call void @llvm.lifetime.start.p0(i64 4, ptr %8) #4
  %19 = load i32, ptr %6, align 4, !tbaa !26
  %20 = load i32, ptr %7, align 4, !tbaa !26
  %21 = sub nsw i32 %19, %20
  %22 = icmp sgt i32 %21, 0
  br i1 %22, label %23, label %27

23:                                               ; preds = %18
  %24 = load i32, ptr %6, align 4, !tbaa !26
  %25 = load i32, ptr %7, align 4, !tbaa !26
  %26 = sub nsw i32 %24, %25
  br label %32

27:                                               ; preds = %18
  %28 = load i32, ptr %6, align 4, !tbaa !26
  %29 = load i32, ptr %7, align 4, !tbaa !26
  %30 = sub nsw i32 %28, %29
  %31 = sub nsw i32 0, %30
  br label %32

32:                                               ; preds = %27, %23
  %33 = phi i32 [ %26, %23 ], [ %31, %27 ]
  store i32 %33, ptr %8, align 4, !tbaa !26
  call void @llvm.lifetime.start.p0(i64 4, ptr %9) #4
  %34 = load i32, ptr %5, align 4, !tbaa !26
  %35 = and i32 %34, 1023
  store i32 %35, ptr %9, align 4, !tbaa !26
  call void @llvm.lifetime.start.p0(i64 4, ptr %10) #4
  %36 = load i32, ptr %8, align 4, !tbaa !26
  %37 = mul i32 %36, 100
  %38 = load i32, ptr %9, align 4, !tbaa !26
  %39 = udiv i32 %37, %38
  store i32 %39, ptr %10, align 4, !tbaa !26
  call void @llvm.lifetime.start.p0(i64 4, ptr %11) #4
  %40 = load i32, ptr %5, align 4, !tbaa !26
  %41 = lshr i32 %40, 20
  %42 = and i32 %41, 1023
  store i32 %42, ptr %11, align 4, !tbaa !26
  call void @llvm.lifetime.start.p0(i64 4, ptr %12) #4
  %43 = load i32, ptr %5, align 4, !tbaa !26
  %44 = lshr i32 %43, 10
  %45 = and i32 %44, 1023
  store i32 %45, ptr %12, align 4, !tbaa !26
  %46 = load i32, ptr %12, align 4, !tbaa !26
  %47 = mul i32 %46, 10
  %48 = load i32, ptr %10, align 4, !tbaa !26
  %49 = load i32, ptr %11, align 4, !tbaa !26
  %50 = mul i32 %49, 10
  %51 = icmp ult i32 %48, %50
  br i1 %51, label %52, label %54

52:                                               ; preds = %32
  %53 = load i32, ptr %10, align 4, !tbaa !26
  br label %57

54:                                               ; preds = %32
  %55 = load i32, ptr %11, align 4, !tbaa !26
  %56 = mul i32 %55, 10
  br label %57

57:                                               ; preds = %54, %52
  %58 = phi i32 [ %53, %52 ], [ %56, %54 ]
  %59 = icmp ugt i32 %47, %58
  br i1 %59, label %60, label %63

60:                                               ; preds = %57
  %61 = load i32, ptr %12, align 4, !tbaa !26
  %62 = mul i32 %61, 10
  br label %75

63:                                               ; preds = %57
  %64 = load i32, ptr %10, align 4, !tbaa !26
  %65 = load i32, ptr %11, align 4, !tbaa !26
  %66 = mul i32 %65, 10
  %67 = icmp ult i32 %64, %66
  br i1 %67, label %68, label %70

68:                                               ; preds = %63
  %69 = load i32, ptr %10, align 4, !tbaa !26
  br label %73

70:                                               ; preds = %63
  %71 = load i32, ptr %11, align 4, !tbaa !26
  %72 = mul i32 %71, 10
  br label %73

73:                                               ; preds = %70, %68
  %74 = phi i32 [ %69, %68 ], [ %72, %70 ]
  br label %75

75:                                               ; preds = %73, %60
  %76 = phi i32 [ %62, %60 ], [ %74, %73 ]
  store i32 %76, ptr %4, align 4
  call void @llvm.lifetime.end.p0(i64 4, ptr %12) #4
  call void @llvm.lifetime.end.p0(i64 4, ptr %11) #4
  call void @llvm.lifetime.end.p0(i64 4, ptr %10) #4
  call void @llvm.lifetime.end.p0(i64 4, ptr %9) #4
  call void @llvm.lifetime.end.p0(i64 4, ptr %8) #4
  br label %77

77:                                               ; preds = %75, %16
  %78 = load i32, ptr %4, align 4
  ret i32 %78
}

; Function Attrs: nounwind uwtable
define internal void @resolve_time(ptr noundef %0) #0 {
  %2 = alloca ptr, align 8
  store ptr %0, ptr %2, align 8, !tbaa !21
  %3 = load ptr, ptr %2, align 8, !tbaa !21
  %4 = getelementptr inbounds nuw %struct._lv_anim_t, ptr %3, i32 0, i32 12
  %5 = load i32, ptr %4, align 4, !tbaa !32
  %6 = load ptr, ptr %2, align 8, !tbaa !21
  %7 = getelementptr inbounds nuw %struct._lv_anim_t, ptr %6, i32 0, i32 9
  %8 = load i32, ptr %7, align 8, !tbaa !29
  %9 = load ptr, ptr %2, align 8, !tbaa !21
  %10 = getelementptr inbounds nuw %struct._lv_anim_t, ptr %9, i32 0, i32 11
  %11 = load i32, ptr %10, align 8, !tbaa !30
  %12 = call i32 @convert_speed_to_time(i32 noundef %5, i32 noundef %8, i32 noundef %11)
  %13 = load ptr, ptr %2, align 8, !tbaa !21
  %14 = getelementptr inbounds nuw %struct._lv_anim_t, ptr %13, i32 0, i32 12
  store i32 %12, ptr %14, align 4, !tbaa !32
  %15 = load ptr, ptr %2, align 8, !tbaa !21
  %16 = getelementptr inbounds nuw %struct._lv_anim_t, ptr %15, i32 0, i32 15
  %17 = load i32, ptr %16, align 8, !tbaa !42
  %18 = load ptr, ptr %2, align 8, !tbaa !21
  %19 = getelementptr inbounds nuw %struct._lv_anim_t, ptr %18, i32 0, i32 9
  %20 = load i32, ptr %19, align 8, !tbaa !29
  %21 = load ptr, ptr %2, align 8, !tbaa !21
  %22 = getelementptr inbounds nuw %struct._lv_anim_t, ptr %21, i32 0, i32 11
  %23 = load i32, ptr %22, align 8, !tbaa !30
  %24 = call i32 @convert_speed_to_time(i32 noundef %17, i32 noundef %20, i32 noundef %23)
  %25 = load ptr, ptr %2, align 8, !tbaa !21
  %26 = getelementptr inbounds nuw %struct._lv_anim_t, ptr %25, i32 0, i32 15
  store i32 %24, ptr %26, align 8, !tbaa !42
  %27 = load ptr, ptr %2, align 8, !tbaa !21
  %28 = getelementptr inbounds nuw %struct._lv_anim_t, ptr %27, i32 0, i32 14
  %29 = load i32, ptr %28, align 4, !tbaa !43
  %30 = load ptr, ptr %2, align 8, !tbaa !21
  %31 = getelementptr inbounds nuw %struct._lv_anim_t, ptr %30, i32 0, i32 9
  %32 = load i32, ptr %31, align 8, !tbaa !29
  %33 = load ptr, ptr %2, align 8, !tbaa !21
  %34 = getelementptr inbounds nuw %struct._lv_anim_t, ptr %33, i32 0, i32 11
  %35 = load i32, ptr %34, align 8, !tbaa !30
  %36 = call i32 @convert_speed_to_time(i32 noundef %29, i32 noundef %32, i32 noundef %35)
  %37 = load ptr, ptr %2, align 8, !tbaa !21
  %38 = getelementptr inbounds nuw %struct._lv_anim_t, ptr %37, i32 0, i32 14
  store i32 %36, ptr %38, align 4, !tbaa !43
  %39 = load ptr, ptr %2, align 8, !tbaa !21
  %40 = getelementptr inbounds nuw %struct._lv_anim_t, ptr %39, i32 0, i32 16
  %41 = load i32, ptr %40, align 4, !tbaa !44
  %42 = load ptr, ptr %2, align 8, !tbaa !21
  %43 = getelementptr inbounds nuw %struct._lv_anim_t, ptr %42, i32 0, i32 9
  %44 = load i32, ptr %43, align 8, !tbaa !29
  %45 = load ptr, ptr %2, align 8, !tbaa !21
  %46 = getelementptr inbounds nuw %struct._lv_anim_t, ptr %45, i32 0, i32 11
  %47 = load i32, ptr %46, align 8, !tbaa !30
  %48 = call i32 @convert_speed_to_time(i32 noundef %41, i32 noundef %44, i32 noundef %47)
  %49 = load ptr, ptr %2, align 8, !tbaa !21
  %50 = getelementptr inbounds nuw %struct._lv_anim_t, ptr %49, i32 0, i32 16
  store i32 %48, ptr %50, align 4, !tbaa !44
  ret void
}