; Function Attrs: mustprogress nofree norecurse nosync nounwind willreturn memory(argmem: readwrite) uwtable
define internal fastcc void @resolve_time(ptr nocapture noundef nonnull %0) unnamed_addr #2 {
  %2 = getelementptr inbounds nuw i8, ptr %0, i64 84
  %3 = load i32, ptr %2, align 4, !tbaa !30
  %4 = getelementptr inbounds nuw i8, ptr %0, i64 72
  %5 = load i32, ptr %4, align 8, !tbaa !27
  %6 = getelementptr inbounds nuw i8, ptr %0, i64 80
  %7 = load i32, ptr %6, align 8, !tbaa !28
  %8 = icmp sgt i32 %3, -1
  br i1 %8, label %convert_speed_to_time.exit, label %9

9:                                                ; preds = %1
  %10 = sub nsw i32 %5, %7
  %11 = tail call i32 @llvm.abs.i32(i32 %10, i1 true)
  %12 = and i32 %3, 1023
  %13 = mul i32 %11, 100
  %14 = udiv i32 %13, %12
  %15 = lshr i32 %3, 20
  %16 = and i32 %15, 1023
  %17 = lshr i32 %3, 10
  %18 = and i32 %17, 1023
  %19 = mul nuw nsw i32 %18, 10
  %20 = mul nuw nsw i32 %16, 10
  %21 = tail call i32 @llvm.umin.i32(i32 %14, i32 %20)
  %22 = tail call i32 @llvm.umax.i32(i32 %19, i32 %21)
  br label %convert_speed_to_time.exit

convert_speed_to_time.exit:                       ; preds = %1, %9
  %.0.i = phi i32 [ %22, %9 ], [ %3, %1 ]
  store i32 %.0.i, ptr %2, align 4, !tbaa !30
  %23 = getelementptr inbounds nuw i8, ptr %0, i64 96
  %24 = load i32, ptr %23, align 8, !tbaa !37
  %25 = icmp sgt i32 %24, -1
  br i1 %25, label %convert_speed_to_time.exit17, label %26

26:                                               ; preds = %convert_speed_to_time.exit
  %27 = sub nsw i32 %5, %7
  %28 = tail call i32 @llvm.abs.i32(i32 %27, i1 true)
  %29 = and i32 %24, 1023
  %30 = mul i32 %28, 100
  %31 = udiv i32 %30, %29
  %32 = lshr i32 %24, 20
  %33 = and i32 %32, 1023
  %34 = lshr i32 %24, 10
  %35 = and i32 %34, 1023
  %36 = mul nuw nsw i32 %35, 10
  %37 = mul nuw nsw i32 %33, 10
  %38 = tail call i32 @llvm.umin.i32(i32 %31, i32 %37)
  %39 = tail call i32 @llvm.umax.i32(i32 %36, i32 %38)
  br label %convert_speed_to_time.exit17

convert_speed_to_time.exit17:                     ; preds = %convert_speed_to_time.exit, %26
  %.0.i16 = phi i32 [ %39, %26 ], [ %24, %convert_speed_to_time.exit ]
  store i32 %.0.i16, ptr %23, align 8, !tbaa !37
  %40 = getelementptr inbounds nuw i8, ptr %0, i64 92
  %41 = load i32, ptr %40, align 4, !tbaa !41
  %42 = icmp sgt i32 %41, -1
  br i1 %42, label %convert_speed_to_time.exit19, label %43

43:                                               ; preds = %convert_speed_to_time.exit17
  %44 = sub nsw i32 %5, %7
  %45 = tail call i32 @llvm.abs.i32(i32 %44, i1 true)
  %46 = and i32 %41, 1023
  %47 = mul i32 %45, 100
  %48 = udiv i32 %47, %46
  %49 = lshr i32 %41, 20
  %50 = and i32 %49, 1023
  %51 = lshr i32 %41, 10
  %52 = and i32 %51, 1023
  %53 = mul nuw nsw i32 %52, 10
  %54 = mul nuw nsw i32 %50, 10
  %55 = tail call i32 @llvm.umin.i32(i32 %48, i32 %54)
  %56 = tail call i32 @llvm.umax.i32(i32 %53, i32 %55)
  br label %convert_speed_to_time.exit19

convert_speed_to_time.exit19:                     ; preds = %convert_speed_to_time.exit17, %43
  %.0.i18 = phi i32 [ %56, %43 ], [ %41, %convert_speed_to_time.exit17 ]
  store i32 %.0.i18, ptr %40, align 4, !tbaa !41
  %57 = getelementptr inbounds nuw i8, ptr %0, i64 100
  %58 = load i32, ptr %57, align 4, !tbaa !40
  %59 = icmp sgt i32 %58, -1
  br i1 %59, label %convert_speed_to_time.exit21, label %60

60:                                               ; preds = %convert_speed_to_time.exit19
  %61 = sub nsw i32 %5, %7
  %62 = tail call i32 @llvm.abs.i32(i32 %61, i1 true)
  %63 = and i32 %58, 1023
  %64 = mul i32 %62, 100
  %65 = udiv i32 %64, %63
  %66 = lshr i32 %58, 20
  %67 = and i32 %66, 1023
  %68 = lshr i32 %58, 10
  %69 = and i32 %68, 1023
  %70 = mul nuw nsw i32 %69, 10
  %71 = mul nuw nsw i32 %67, 10
  %72 = tail call i32 @llvm.umin.i32(i32 %65, i32 %71)
  %73 = tail call i32 @llvm.umax.i32(i32 %70, i32 %72)
  br label %convert_speed_to_time.exit21

convert_speed_to_time.exit21:                     ; preds = %convert_speed_to_time.exit19, %60
  %.0.i20 = phi i32 [ %73, %60 ], [ %58, %convert_speed_to_time.exit19 ]
  store i32 %.0.i20, ptr %57, align 4, !tbaa !40
  ret void
}